; Function Attrs: nounwind uwtable
define noalias nonnull ptr @l_Lean_IR_Borrow_OwnedSet_getHash___boxed(ptr noundef %0) #1 {
  %2 = getelementptr inbounds nuw i8, ptr %0, i64 8
  %3 = load ptr, ptr %2, align 8, !tbaa !9
  %4 = getelementptr inbounds nuw i8, ptr %0, i64 16
  %5 = load ptr, ptr %4, align 8, !tbaa !9
  %6 = tail call i64 @l_Lean_Name_hash___override(ptr noundef %3) #6
  %7 = ptrtoint ptr %5 to i64
  %8 = and i64 %7, 1
  %.not.i.i = icmp eq i64 %8, 0
  br i1 %.not.i.i, label %11, label %9

9:                                                ; preds = %1
  %10 = lshr i64 %7, 1
  br label %l_Lean_IR_Borrow_OwnedSet_getHash.exit

11:                                               ; preds = %1
  %12 = tail call i64 @lean_uint64_of_big_nat(ptr noundef %5) #6
  br label %l_Lean_IR_Borrow_OwnedSet_getHash.exit

l_Lean_IR_Borrow_OwnedSet_getHash.exit:           ; preds = %9, %11
  %13 = phi i64 [ %10, %9 ], [ %12, %11 ]
  %14 = tail call i64 @lean_uint64_mix_hash(i64 noundef %6, i64 noundef %13) #6
  %15 = ptrtoint ptr %0 to i64
  %16 = and i64 %15, 1
  %.not = icmp eq i64 %16, 0
  br i1 %.not, label %17, label %lean_dec.exit

17:                                               ; preds = %l_Lean_IR_Borrow_OwnedSet_getHash.exit
  %18 = load i32, ptr %0, align 4, !tbaa !4
  %19 = icmp sgt i32 %18, 1
  br i1 %19, label %20, label %22, !prof !11

20:                                               ; preds = %17
  %21 = add nsw i32 %18, -1
  store i32 %21, ptr %0, align 4, !tbaa !4
  br label %lean_dec.exit

22:                                               ; preds = %17
  %.not.i = icmp eq i32 %18, 0
  br i1 %.not.i, label %lean_dec.exit, label %23

23:                                               ; preds = %22
  tail call void @lean_dec_ref_cold(ptr noundef nonnull %0) #6
  br label %lean_dec.exit

lean_dec.exit:                                    ; preds = %23, %22, %20, %l_Lean_IR_Borrow_OwnedSet_getHash.exit
  tail call void @lean_inc_heartbeat() #6
  %24 = tail call noalias ptr @mi_malloc_small(i64 noundef 16) #6
  %25 = icmp eq ptr %24, null
  br i1 %25, label %26, label %lean_box_uint64.exit

26:                                               ; preds = %lean_dec.exit
  tail call void @lean_internal_panic_out_of_memory() #7
  unreachable

lean_box_uint64.exit:                             ; preds = %lean_dec.exit
  %27 = getelementptr inbounds nuw i8, ptr %24, i64 4
  store i32 1, ptr %24, align 4, !tbaa !4
  store i32 16, ptr %27, align 4
  %28 = getelementptr inbounds nuw i8, ptr %24, i64 8
  store i64 %14, ptr %28, align 8, !tbaa !13
  ret ptr %24
}